target datalayout = "e-m:e-p270:32:32-p271:32:32-p272:64:64-i64:64-i128:128-f80:128-n8:16:32:64-S128"
target triple = "x86_64-unknown-linux-gnu"

%"class.std::vector" = type { %"struct.std::_Vector_base" }
%"struct.std::_Vector_base" = type { %"struct.std::_Vector_base<unsigned char, std::allocator<unsigned char>>::_Vector_impl" }
%"struct.std::_Vector_base<unsigned char, std::allocator<unsigned char>>::_Vector_impl" = type { %"struct.std::_Vector_base<unsigned char, std::allocator<unsigned char>>::_Vector_impl_data" }
%"struct.std::_Vector_base<unsigned char, std::allocator<unsigned char>>::_Vector_impl_data" = type { ptr, ptr, ptr }
%"class.hermes::hbc::BytecodeInstructionGenerator" = type <{ %"class.std::vector", i8, [7 x i8] }>

; Function Attrs: mustprogress nounwind uwtable
define linkonce_odr noundef nonnull align 1 dereferenceable(1) ptr @_ZNSt6vectorIhSaIhEEixEm(ptr noundef nonnull align 8 dereferenceable(24) %this, i64 noundef %__n) #0 comdat align 2 {
entry:
  %this.addr = alloca ptr, align 8
  %__n.addr = alloca i64, align 8
  store ptr %this, ptr %this.addr, align 8
  store i64 %__n, ptr %__n.addr, align 8
  %this1 = load ptr, ptr %this.addr, align 8
  %_M_impl = getelementptr inbounds %"struct.std::_Vector_base", ptr %this1, i32 0, i32 0
  %_M_start = getelementptr inbounds %"struct.std::_Vector_base<unsigned char, std::allocator<unsigned char>>::_Vector_impl_data", ptr %_M_impl, i32 0, i32 0
  %0 = load ptr, ptr %_M_start, align 8
  %1 = load i64, ptr %__n.addr, align 8
  %add.ptr = getelementptr inbounds i8, ptr %0, i64 %1
  ret ptr %add.ptr
}

; Function Attrs: mustprogress nounwind uwtable
define hidden void @_ZN6hermes3hbc25BytecodeFunctionGenerator16updateJumpTargetEjii(ptr noundef nonnull align 8 dereferenceable(200) %this, i32 noundef %loc, i32 noundef %newVal, i32 noundef %bytes) #0 align 2 {
entry:
  %this.addr = alloca ptr, align 8
  %loc.addr = alloca i32, align 4
  %newVal.addr = alloca i32, align 4
  %bytes.addr = alloca i32, align 4
  store ptr %this, ptr %this.addr, align 8
  store i32 %loc, ptr %loc.addr, align 4
  store i32 %newVal, ptr %newVal.addr, align 4
  store i32 %bytes, ptr %bytes.addr, align 4
  %this1 = load ptr, ptr %this.addr, align 8
  br label %for.cond

for.cond:                                         ; preds = %for.inc, %entry
  %0 = load i32, ptr %bytes.addr, align 4
  %tobool = icmp ne i32 %0, 0
  br i1 %tobool, label %for.body, label %for.end

for.body:                                         ; preds = %for.cond
  %1 = load i32, ptr %newVal.addr, align 4
  %conv = trunc i32 %1 to i8
  %opcodes_ = getelementptr inbounds %"class.hermes::hbc::BytecodeInstructionGenerator", ptr %this1, i32 0, i32 0
  %2 = load i32, ptr %loc.addr, align 4
  %conv2 = zext i32 %2 to i64
  %call = call noundef nonnull align 1 dereferenceable(1) ptr @_ZNSt6vectorIhSaIhEEixEm(ptr noundef nonnull align 8 dereferenceable(24) %opcodes_, i64 noundef %conv2) #9
  store i8 %conv, ptr %call, align 1
  %3 = load i32, ptr %newVal.addr, align 4
  %shr = ashr i32 %3, 8
  store i32 %shr, ptr %newVal.addr, align 4
  br label %for.inc

for.inc:                                          ; preds = %for.body
  %4 = load i32, ptr %bytes.addr, align 4
  %dec = add nsw i32 %4, -1
  store i32 %dec, ptr %bytes.addr, align 4
  %5 = load i32, ptr %loc.addr, align 4
  %inc = add i32 %5, 1
  store i32 %inc, ptr %loc.addr, align 4
  br label %for.cond, !llvm.loop !4

for.end:                                          ; preds = %for.cond
  ret void
}

; Function Attrs: mustprogress nounwind uwtable
define linkonce_odr noundef i64 @_ZNKSt6vectorIhSaIhEE4sizeEv(ptr noundef nonnull align 8 dereferenceable(24) %this) #0 comdat align 2 {
entry:
  %this.addr = alloca ptr, align 8
  store ptr %this, ptr %this.addr, align 8
  %this1 = load ptr, ptr %this.addr, align 8
  %_M_impl = getelementptr inbounds %"struct.std::_Vector_base", ptr %this1, i32 0, i32 0
  %_M_finish = getelementptr inbounds %"struct.std::_Vector_base<unsigned char, std::allocator<unsigned char>>::_Vector_impl_data", ptr %_M_impl, i32 0, i32 1
  %0 = load ptr, ptr %_M_finish, align 8
  %_M_impl2 = getelementptr inbounds %"struct.std::_Vector_base", ptr %this1, i32 0, i32 0
  %_M_start = getelementptr inbounds %"struct.std::_Vector_base<unsigned char, std::allocator<unsigned char>>::_Vector_impl_data", ptr %_M_impl2, i32 0, i32 0
  %1 = load ptr, ptr %_M_start, align 8
  %sub.ptr.lhs.cast = ptrtoint ptr %0 to i64
  %sub.ptr.rhs.cast = ptrtoint ptr %1 to i64
  %sub.ptr.sub = sub i64 %sub.ptr.lhs.cast, %sub.ptr.rhs.cast
  ret i64 %sub.ptr.sub
}

; Function Attrs: mustprogress nounwind uwtable
define hidden void @_ZN6hermes3hbc25BytecodeFunctionGenerator21updateJumpTableOffsetEjjj(ptr noundef nonnull align 8 dereferenceable(200) %this, i32 noundef %loc, i32 noundef %jumpTableOffset, i32 noundef %instLoc) #0 align 2 {
entry:
  %this.addr = alloca ptr, align 8
  %loc.addr = alloca i32, align 4
  %jumpTableOffset.addr = alloca i32, align 4
  %instLoc.addr = alloca i32, align 4
  store ptr %this, ptr %this.addr, align 8
  store i32 %loc, ptr %loc.addr, align 4
  store i32 %jumpTableOffset, ptr %jumpTableOffset.addr, align 4
  store i32 %instLoc, ptr %instLoc.addr, align 4
  %this1 = load ptr, ptr %this.addr, align 8
  %0 = load i32, ptr %loc.addr, align 4
  %opcodes_ = getelementptr inbounds %"class.hermes::hbc::BytecodeInstructionGenerator", ptr %this1, i32 0, i32 0
  %call = call noundef i64 @_ZNKSt6vectorIhSaIhEE4sizeEv(ptr noundef nonnull align 8 dereferenceable(24) %opcodes_) #9
  %1 = load i32, ptr %jumpTableOffset.addr, align 4
  %conv = zext i32 %1 to i64
  %mul = mul i64 %conv, 4
  %add = add i64 %call, %mul
  %2 = load i32, ptr %instLoc.addr, align 4
  %conv2 = zext i32 %2 to i64
  %sub = sub i64 %add, %conv2
  %conv3 = trunc i64 %sub to i32
  call void @_ZN6hermes3hbc25BytecodeFunctionGenerator16updateJumpTargetEjii(ptr noundef nonnull align 8 dereferenceable(200) %this1, i32 noundef %0, i32 noundef %conv3, i32 noundef 4)
  ret void
}