; Function Attrs: mustprogress nofree norecurse nosync nounwind memory(write, argmem: readwrite, inaccessiblemem: none) uwtable
define hidden void @_ZN6hermes3hbc25BytecodeFunctionGenerator21updateJumpTableOffsetEjjj(ptr noundef nonnull readonly align 8 captures(none) dereferenceable(200) %this, i32 noundef %loc, i32 noundef %jumpTableOffset, i32 noundef %instLoc) local_unnamed_addr #4 align 2 {
entry:
  %_M_finish.i = getelementptr inbounds nuw i8, ptr %this, i64 8
  %0 = load ptr, ptr %_M_finish.i, align 8
  %1 = load ptr, ptr %this, align 8
  %sub.ptr.lhs.cast.i = ptrtoint ptr %0 to i64
  %sub.ptr.rhs.cast.i = ptrtoint ptr %1 to i64
  %conv = zext i32 %jumpTableOffset to i64
  %mul = shl nuw nsw i64 %conv, 2
  %sub.ptr.sub.i = add i64 %mul, %sub.ptr.lhs.cast.i
  %add = sub i64 %sub.ptr.sub.i, %sub.ptr.rhs.cast.i
  %2 = trunc i64 %add to i32
  %conv3 = sub i32 %2, %instLoc
  br label %for.body.i

for.body.i:                                       ; preds = %for.body.i, %entry
  %bytes.addr.07.i = phi i32 [ %dec.i, %for.body.i ], [ 4, %entry ]
  %newVal.addr.06.i = phi i32 [ %shr.i, %for.body.i ], [ %conv3, %entry ]
  %loc.addr.05.i = phi i32 [ %inc.i, %for.body.i ], [ %loc, %entry ]
  %conv.i = trunc i32 %newVal.addr.06.i to i8
  %conv2.i = zext i32 %loc.addr.05.i to i64
  %3 = load ptr, ptr %this, align 8
  %add.ptr.i.i = getelementptr inbounds nuw i8, ptr %3, i64 %conv2.i
  store i8 %conv.i, ptr %add.ptr.i.i, align 1
  %shr.i = ashr i32 %newVal.addr.06.i, 8
  %dec.i = add nsw i32 %bytes.addr.07.i, -1
  %inc.i = add i32 %loc.addr.05.i, 1
  %tobool.not.i = icmp eq i32 %dec.i, 0
  br i1 %tobool.not.i, label %_ZN6hermes3hbc25BytecodeFunctionGenerator16updateJumpTargetEjii.exit, label %for.body.i, !llvm.loop !102

_ZN6hermes3hbc25BytecodeFunctionGenerator16updateJumpTargetEjii.exit: ; preds = %for.body.i
  ret void
}